target datalayout = "e-m:e-p270:32:32-p271:32:32-p272:64:64-i64:64-i128:128-f80:128-n8:16:32:64-S128"
target triple = "x86_64-unknown-linux-gnu"

%struct.MemoryRegion = type { %struct.Object, i8, i8, i8, i8, i8, i8, i8, i8, i8, i8, ptr, ptr, ptr, ptr, ptr, ptr, i32, i128, i64, ptr, i64, i8, i8, i8, i8, i8, ptr, i64, i32, %union.anon, %union.anon.0, %union.anon.1, ptr, i32, ptr, ptr, i8 }
%struct.Object = type { ptr, ptr, ptr, i32, ptr }
%union.anon = type { %struct.QTailQLink }
%struct.QTailQLink = type { ptr, ptr }
%union.anon.0 = type { %struct.QTailQLink }
%union.anon.1 = type { %struct.QTailQLink }
%struct.VFIOPCIDevice = type { %struct.PCIDevice, %struct.VFIODevice, %struct.VFIOINTx, i32, ptr, i64, i32, i64, ptr, i32, ptr, ptr, i32, i32, [6 x %struct.VFIOBAR], ptr, ptr, %struct.PCIHostDeviceAddress, %struct.QemuUUID, %struct.EventNotifier, %struct.EventNotifier, ptr, i32, i32, i32, i32, i32, i32, i32, i32, i32, i32, i32, i8, i8, i8, i8, i8, i8, i8, i8, i8, i8, i8, i8, i8, i8, i32, i8, i8, ptr, %struct.Notifier }
%struct.PCIDevice = type { %struct.DeviceState, i8, i8, ptr, ptr, ptr, ptr, ptr, i32, %struct.PCIReqIDCache, [64 x i8], [7 x %struct.PCIIORegion], %struct.AddressSpace, %struct.MemoryRegion, %struct.MemoryRegion, ptr, ptr, [3 x ptr], i8, i8, i32, i8, i32, ptr, ptr, ptr, ptr, ptr, ptr, %struct.MemoryRegion, %struct.MemoryRegion, %struct.MemoryRegion, ptr, i8, i32, i8, %struct.PCIExpressDevice, ptr, ptr, i32, i8, %struct.MemoryRegion, i32, ptr, ptr, ptr, ptr, ptr, i32 }
%struct.DeviceState = type { %struct.Object, ptr, ptr, i8, i8, i64, ptr, i32, i8, ptr, %struct.NamedGPIOListHead, %struct.NamedClockListHead, %struct.BusStateHead, i32, i32, i32, %struct.ResettableState, ptr, %struct.MemReentrancyGuard }
%struct.NamedGPIOListHead = type { ptr }
%struct.NamedClockListHead = type { ptr }
%struct.BusStateHead = type { ptr }
%struct.ResettableState = type { i32, i8, i8 }
%struct.MemReentrancyGuard = type { i8 }
%struct.PCIReqIDCache = type { ptr, i32 }
%struct.PCIIORegion = type { i64, i64, i8, ptr, ptr }
%struct.AddressSpace = type { %struct.rcu_head, ptr, ptr, ptr, i32, i32, ptr, %union.anon.4, %union.anon.5 }
%struct.rcu_head = type { ptr, ptr }
%union.anon.4 = type { %struct.QTailQLink }
%union.anon.5 = type { %struct.QTailQLink }
%struct.PCIExpressDevice = type { i8, i8, i8, i16, %struct.PCIEAERLog, i16, i16, i16, %struct.PCIESriovPF, %struct.PCIESriovVF }
%struct.PCIEAERLog = type { i16, i16, ptr }
%struct.PCIESriovPF = type { i16, [7 x i8], ptr, ptr }
%struct.PCIESriovVF = type { ptr, i16 }
%struct.VFIODevice = type { %struct.anon.6, %struct.anon.7, %struct.anon.8, ptr, ptr, ptr, ptr, ptr, i32, i32, i8, i8, i8, i8, i32, ptr, i32, i32, i32, ptr, ptr, i32, i8, i8 }
%struct.anon.6 = type { ptr, ptr }
%struct.anon.7 = type { ptr, ptr }
%struct.anon.8 = type { ptr, ptr }
%struct.VFIOINTx = type { i8, i8, i8, %struct.EventNotifier, %struct.EventNotifier, %struct.PCIINTxRoute, i32, ptr }
%struct.PCIINTxRoute = type { i32, i32 }
%struct.VFIOBAR = type { %struct.VFIORegion, ptr, i64, i8, i8, i8, %struct.anon.9 }
%struct.VFIORegion = type { ptr, i64, ptr, i64, i32, i32, ptr, i8 }
%struct.anon.9 = type { ptr }
%struct.PCIHostDeviceAddress = type { i32, i32, i32, i32 }
%struct.QemuUUID = type { %union.anon.10 }
%union.anon.10 = type { %struct.anon.11 }
%struct.anon.11 = type { i32, i16, i16, i8, i8, [6 x i8] }
%struct.EventNotifier = type { i32, i32, i8 }
%struct.Notifier = type { ptr, %struct.anon.12 }
%struct.anon.12 = type { ptr, ptr }
%struct.VFIOMSIXInfo = type { i8, i8, i16, i32, i32, ptr, i8 }

; Function Attrs: nounwind sspstrong uwtable
define internal void @vfio_teardown_msi(ptr noundef %vdev) #0 {
entry:
  %vdev.addr = alloca ptr, align 8
  store ptr %vdev, ptr %vdev.addr, align 8
  %0 = load ptr, ptr %vdev.addr, align 8
  %pdev = getelementptr inbounds %struct.VFIOPCIDevice, ptr %0, i32 0, i32 0
  call void @msi_uninit(ptr noundef %pdev)
  %1 = load ptr, ptr %vdev.addr, align 8
  %msix = getelementptr inbounds %struct.VFIOPCIDevice, ptr %1, i32 0, i32 11
  %2 = load ptr, ptr %msix, align 8
  %tobool = icmp ne ptr %2, null
  br i1 %tobool, label %if.then, label %if.end

if.then:                                          ; preds = %entry
  %3 = load ptr, ptr %vdev.addr, align 8
  %pdev1 = getelementptr inbounds %struct.VFIOPCIDevice, ptr %3, i32 0, i32 0
  %4 = load ptr, ptr %vdev.addr, align 8
  %bars = getelementptr inbounds %struct.VFIOPCIDevice, ptr %4, i32 0, i32 14
  %5 = load ptr, ptr %vdev.addr, align 8
  %msix2 = getelementptr inbounds %struct.VFIOPCIDevice, ptr %5, i32 0, i32 11
  %6 = load ptr, ptr %msix2, align 8
  %table_bar = getelementptr inbounds %struct.VFIOMSIXInfo, ptr %6, i32 0, i32 0
  %7 = load i8, ptr %table_bar, align 8
  %idxprom = zext i8 %7 to i64
  %arrayidx = getelementptr [6 x %struct.VFIOBAR], ptr %bars, i64 0, i64 %idxprom
  %mr = getelementptr inbounds %struct.VFIOBAR, ptr %arrayidx, i32 0, i32 1
  %8 = load ptr, ptr %mr, align 8
  %9 = load ptr, ptr %vdev.addr, align 8
  %bars3 = getelementptr inbounds %struct.VFIOPCIDevice, ptr %9, i32 0, i32 14
  %10 = load ptr, ptr %vdev.addr, align 8
  %msix4 = getelementptr inbounds %struct.VFIOPCIDevice, ptr %10, i32 0, i32 11
  %11 = load ptr, ptr %msix4, align 8
  %pba_bar = getelementptr inbounds %struct.VFIOMSIXInfo, ptr %11, i32 0, i32 1
  %12 = load i8, ptr %pba_bar, align 1
  %idxprom5 = zext i8 %12 to i64
  %arrayidx6 = getelementptr [6 x %struct.VFIOBAR], ptr %bars3, i64 0, i64 %idxprom5
  %mr7 = getelementptr inbounds %struct.VFIOBAR, ptr %arrayidx6, i32 0, i32 1
  %13 = load ptr, ptr %mr7, align 8
  call void @msix_uninit(ptr noundef %pdev1, ptr noundef %8, ptr noundef %13)
  %14 = load ptr, ptr %vdev.addr, align 8
  %msix8 = getelementptr inbounds %struct.VFIOPCIDevice, ptr %14, i32 0, i32 11
  %15 = load ptr, ptr %msix8, align 8
  %pending = getelementptr inbounds %struct.VFIOMSIXInfo, ptr %15, i32 0, i32 5
  %16 = load ptr, ptr %pending, align 8
  call void @g_free(ptr noundef %16)
  br label %if.end

if.end:                                           ; preds = %if.then, %entry
  ret void
}