; Function Attrs: nounwind sspstrong uwtable
define internal fastcc void @vfio_teardown_msi(ptr noundef %vdev) unnamed_addr #0 {
entry:
  tail call void @msi_uninit(ptr noundef %vdev) #23
  %msix = getelementptr inbounds nuw i8, ptr %vdev, i64 2872
  %0 = load ptr, ptr %msix, align 8
  %tobool.not = icmp eq ptr %0, null
  br i1 %tobool.not, label %if.end, label %if.then

if.then:                                          ; preds = %entry
  %bars = getelementptr inbounds nuw i8, ptr %vdev, i64 2888
  %1 = load i8, ptr %0, align 8
  %idxprom = zext i8 %1 to i64
  %mr.idx = mul nuw nsw i64 %idxprom, 88
  %2 = getelementptr i8, ptr %bars, i64 %mr.idx
  %mr = getelementptr i8, ptr %2, i64 56
  %3 = load ptr, ptr %mr, align 8
  %pba_bar = getelementptr inbounds nuw i8, ptr %0, i64 1
  %4 = load i8, ptr %pba_bar, align 1
  %idxprom5 = zext i8 %4 to i64
  %mr7.idx = mul nuw nsw i64 %idxprom5, 88
  %5 = getelementptr i8, ptr %bars, i64 %mr7.idx
  %mr7 = getelementptr i8, ptr %5, i64 56
  %6 = load ptr, ptr %mr7, align 8
  tail call void @msix_uninit(ptr noundef nonnull %vdev, ptr noundef %3, ptr noundef %6) #23
  %7 = load ptr, ptr %msix, align 8
  %pending = getelementptr inbounds nuw i8, ptr %7, i64 16
  %8 = load ptr, ptr %pending, align 8
  tail call void @g_free(ptr noundef %8) #23
  br label %if.end

if.end:                                           ; preds = %if.then, %entry
  ret void
}